; Function Attrs: nounwind uwtable
define dso_local range(i32 -1, 1) i32 @select_g_select_nodeinfo_unpack(ptr noundef writeonly captures(none) initializes((0, 8)) %0, ptr noundef %1, i16 noundef zeroext %2) local_unnamed_addr #0 {
  %4 = alloca ptr, align 8
  %5 = alloca ptr, align 8
  %6 = alloca i32, align 4
  %7 = tail call ptr @slurm_xcalloc(i64 noundef 1, i64 noundef 16, i1 noundef zeroext true, i1 noundef zeroext false, ptr noundef nonnull @.str.6, i32 noundef 718, ptr noundef nonnull @__func__.select_g_select_nodeinfo_unpack) #15
  store ptr %7, ptr %0, align 8
  %8 = icmp ugt i16 %2, 10239
  br i1 %8, label %9, label %32

9:                                                ; preds = %3
  call void @llvm.lifetime.start.p0(i64 4, ptr nonnull %6) #15
  %10 = call i32 @unpack32(ptr noundef nonnull %6, ptr noundef %1) #15
  %.not = icmp eq i32 %10, 0
  br i1 %.not, label %11, label %65

11:                                               ; preds = %9
  %12 = load i32, ptr %6, align 4
  %13 = load i32, ptr @select_context_cnt, align 4
  %.not9.i = icmp sgt i32 %13, 0
  br i1 %.not9.i, label %.lr.ph.i, label %select_get_plugin_id_pos.exit.thread.preheader

.lr.ph.i:                                         ; preds = %11
  %14 = load ptr, ptr @ops, align 8
  %wide.trip.count.i = zext nneg i32 %13 to i64
  br label %15

15:                                               ; preds = %20, %.lr.ph.i
  %indvars.iv.i = phi i64 [ 0, %.lr.ph.i ], [ %indvars.iv.next.i, %20 ]
  %16 = getelementptr inbounds nuw %struct.slurm_select_ops_t, ptr %14, i64 %indvars.iv.i
  %17 = load ptr, ptr %16, align 8
  %18 = load i32, ptr %17, align 4
  %19 = icmp eq i32 %18, %12
  br i1 %19, label %select_get_plugin_id_pos.exit, label %20

20:                                               ; preds = %15
  %indvars.iv.next.i = add nuw nsw i64 %indvars.iv.i, 1
  %exitcond.not.i = icmp eq i64 %indvars.iv.next.i, %wide.trip.count.i
  br i1 %exitcond.not.i, label %select_get_plugin_id_pos.exit.thread.preheader, label %15, !llvm.loop !15

select_get_plugin_id_pos.exit.thread.preheader:   ; preds = %20, %11
  br label %select_get_plugin_id_pos.exit.thread

21:                                               ; preds = %select_get_plugin_id_pos.exit.thread
  br i1 %22, label %select_get_plugin_id_pos.exit.thread, label %29, !llvm.loop !8

select_get_plugin_id_pos.exit.thread:             ; preds = %select_get_plugin_id_pos.exit.thread.preheader, %21
  %22 = phi i1 [ false, %21 ], [ true, %select_get_plugin_id_pos.exit.thread.preheader ]
  %indvars.iv.i24 = phi i64 [ 1, %21 ], [ 0, %select_get_plugin_id_pos.exit.thread.preheader ]
  %23 = getelementptr inbounds nuw [2 x %struct.plugin_id_name], ptr @plugin_ids, i64 0, i64 %indvars.iv.i24
  %24 = load i32, ptr %23, align 16
  %25 = icmp eq i32 %12, %24
  br i1 %25, label %26, label %21

26:                                               ; preds = %select_get_plugin_id_pos.exit.thread
  %27 = getelementptr inbounds nuw i8, ptr %23, i64 8
  %28 = load ptr, ptr %27, align 8
  br label %select_plugin_id_to_string.exit

29:                                               ; preds = %21
  %30 = call i32 (ptr, ...) @error(ptr noundef nonnull @.str.2, ptr noundef nonnull @__func__.select_plugin_id_to_string, i32 noundef %12) #15
  br label %select_plugin_id_to_string.exit

select_plugin_id_to_string.exit:                  ; preds = %26, %29
  %.1.i = phi ptr [ %28, %26 ], [ null, %29 ]
  %31 = call i32 (ptr, ...) @error(ptr noundef nonnull @.str.30, ptr noundef nonnull @__func__.select_g_select_nodeinfo_unpack, ptr noundef %.1.i) #15
  br label %65

32:                                               ; preds = %3
  %33 = zext nneg i16 %2 to i32
  %34 = load i32, ptr @select_context_default, align 4
  %35 = getelementptr inbounds nuw i8, ptr %7, i64 8
  store i32 %34, ptr %35, align 8
  %36 = tail call i32 (ptr, ...) @error(ptr noundef nonnull @.str.29, ptr noundef nonnull @__func__.select_g_select_nodeinfo_unpack, i32 noundef %33) #15
  br label %.thread35

select_get_plugin_id_pos.exit:                    ; preds = %15
  %37 = trunc nuw nsw i64 %indvars.iv.i to i32
  %38 = getelementptr inbounds nuw i8, ptr %7, i64 8
  store i32 %37, ptr %38, align 8
  call void @llvm.lifetime.end.p0(i64 4, ptr nonnull %6) #15
  %39 = and i64 %indvars.iv.i, 4294967295
  %40 = getelementptr inbounds nuw %struct.slurm_select_ops_t, ptr %14, i64 %39, i32 17
  %41 = load ptr, ptr %40, align 8
  %42 = call i32 %41(ptr noundef %7, ptr noundef %1, i16 noundef zeroext %2) #15
  %.not21 = icmp eq i32 %42, 0
  br i1 %.not21, label %43, label %.thread35

43:                                               ; preds = %select_get_plugin_id_pos.exit
  %44 = load i32, ptr %38, align 8
  %45 = load i32, ptr @select_context_default, align 4
  %.not22 = icmp eq i32 %44, %45
  br i1 %.not22, label %78, label %46

46:                                               ; preds = %43
  %47 = call zeroext i1 @running_in_slurmctld() #15
  br i1 %47, label %48, label %78

48:                                               ; preds = %46
  call void @llvm.lifetime.start.p0(i64 8, ptr nonnull %5)
  store ptr %7, ptr %5, align 8
  %49 = load ptr, ptr %7, align 8
  %.not3.i = icmp eq ptr %49, null
  br i1 %.not3.i, label %select_g_select_nodeinfo_free.exit, label %50

50:                                               ; preds = %48
  %51 = load ptr, ptr @ops, align 8
  %52 = load i32, ptr %38, align 8
  %53 = zext i32 %52 to i64
  %54 = getelementptr inbounds nuw %struct.slurm_select_ops_t, ptr %51, i64 %53, i32 19
  %55 = load ptr, ptr %54, align 8
  %56 = call i32 %55(ptr noundef nonnull %49) #15
  br label %select_g_select_nodeinfo_free.exit

select_g_select_nodeinfo_free.exit:               ; preds = %48, %50
  call void @slurm_xfree(ptr noundef nonnull %5) #15
  call void @llvm.lifetime.end.p0(i64 8, ptr nonnull %5)
  %57 = call ptr @slurm_xcalloc(i64 noundef 1, i64 noundef 16, i1 noundef zeroext true, i1 noundef zeroext false, ptr noundef nonnull @.str.6, i32 noundef 770, ptr noundef nonnull @__func__.select_g_select_nodeinfo_alloc) #15
  %58 = load i32, ptr @select_context_default, align 4
  %59 = getelementptr inbounds nuw i8, ptr %57, i64 8
  store i32 %58, ptr %59, align 8
  %60 = load ptr, ptr @ops, align 8
  %61 = sext i32 %58 to i64
  %62 = getelementptr inbounds %struct.slurm_select_ops_t, ptr %60, i64 %61, i32 18
  %63 = load ptr, ptr %62, align 8
  %64 = call ptr %63() #15
  store ptr %64, ptr %57, align 8
  store ptr %57, ptr %0, align 8
  br label %78

.thread35:                                        ; preds = %select_get_plugin_id_pos.exit, %32
  call void @llvm.lifetime.start.p0(i64 8, ptr nonnull %4)
  store ptr %7, ptr %4, align 8
  br label %66

65:                                               ; preds = %select_plugin_id_to_string.exit, %9
  call void @llvm.lifetime.end.p0(i64 4, ptr nonnull %6) #15
  call void @llvm.lifetime.start.p0(i64 8, ptr nonnull %4)
  store ptr %7, ptr %4, align 8
  %.not.i26 = icmp eq ptr %7, null
  br i1 %.not.i26, label %select_g_select_nodeinfo_free.exit30, label %66

66:                                               ; preds = %.thread35, %65
  %67 = load ptr, ptr %7, align 8
  %.not3.i27 = icmp eq ptr %67, null
  br i1 %.not3.i27, label %76, label %68

68:                                               ; preds = %66
  %69 = load ptr, ptr @ops, align 8
  %70 = getelementptr inbounds nuw i8, ptr %7, i64 8
  %71 = load i32, ptr %70, align 8
  %72 = zext i32 %71 to i64
  %73 = getelementptr inbounds nuw %struct.slurm_select_ops_t, ptr %69, i64 %72, i32 19
  %74 = load ptr, ptr %73, align 8
  %75 = call i32 %74(ptr noundef nonnull %67) #15
  br label %76

76:                                               ; preds = %68, %66
  call void @slurm_xfree(ptr noundef nonnull %4) #15
  br label %select_g_select_nodeinfo_free.exit30

select_g_select_nodeinfo_free.exit30:             ; preds = %65, %76
  call void @llvm.lifetime.end.p0(i64 8, ptr nonnull %4)
  store ptr null, ptr %0, align 8
  %77 = call i32 (ptr, ...) @error(ptr noundef nonnull @.str.31, ptr noundef nonnull @__func__.select_g_select_nodeinfo_unpack) #15
  br label %78

78:                                               ; preds = %43, %46, %select_g_select_nodeinfo_free.exit, %select_g_select_nodeinfo_free.exit30
  %.018 = phi i32 [ -1, %select_g_select_nodeinfo_free.exit30 ], [ 0, %select_g_select_nodeinfo_free.exit ], [ 0, %46 ], [ 0, %43 ]
  ret i32 %.018
}